; Function Attrs: mustprogress uwtable
define void @_ZNK9grpc_core11json_detail11LoadWrapped8LoadIntoERKNS_12experimental4JsonERKNS_8JsonArgsEPvPNS_16ValidationErrorsE(ptr noundef nonnull align 8 dereferenceable(8) %0, ptr noundef nonnull align 8 dereferenceable(56) %1, ptr noundef nonnull align 8 dereferenceable(8) %2, ptr noundef %3, ptr noundef %4) unnamed_addr #3 align 2 {
  %6 = load ptr, ptr %0, align 8, !tbaa !7
  %7 = getelementptr inbounds nuw i8, ptr %6, i64 8
  %8 = load ptr, ptr %7, align 8
  %9 = tail call noundef ptr %8(ptr noundef nonnull align 8 dereferenceable(8) %0, ptr noundef %3)
  %10 = getelementptr inbounds nuw i8, ptr %4, i64 40
  %11 = load i64, ptr %10, align 8, !tbaa !72
  %12 = load ptr, ptr %0, align 8, !tbaa !7
  %13 = getelementptr inbounds nuw i8, ptr %12, i64 24
  %14 = load ptr, ptr %13, align 8
  %15 = tail call noundef ptr %14(ptr noundef nonnull align 8 dereferenceable(8) %0)
  %16 = load ptr, ptr %15, align 8, !tbaa !7
  %17 = load ptr, ptr %16, align 8
  tail call void %17(ptr noundef nonnull align 8 dereferenceable(8) %15, ptr noundef nonnull align 8 dereferenceable(56) %1, ptr noundef nonnull align 8 dereferenceable(8) %2, ptr noundef %9, ptr noundef nonnull %4)
  %18 = load i64, ptr %10, align 8, !tbaa !72
  %19 = icmp ugt i64 %18, %11
  br i1 %19, label %20, label %24

20:                                               ; preds = %5
  %21 = load ptr, ptr %0, align 8, !tbaa !7
  %22 = getelementptr inbounds nuw i8, ptr %21, i64 16
  %23 = load ptr, ptr %22, align 8
  tail call void %23(ptr noundef nonnull align 8 dereferenceable(8) %0, ptr noundef %3)
  br label %24

24:                                               ; preds = %20, %5
  ret void
}